target datalayout = "e-m:e-p270:32:32-p271:32:32-p272:64:64-i64:64-i128:128-f80:128-n8:16:32:64-S128"
target triple = "x86_64-pc-linux-gnu"

; Function Attrs: nounwind uwtable
define internal void @shrink88(ptr noundef %0, i64 noundef %1, ptr noundef %2, i64 noundef %3, i32 noundef %4, i32 noundef %5) #1 {
  %7 = alloca ptr, align 8
  %8 = alloca i64, align 8
  %9 = alloca ptr, align 8
  %10 = alloca i64, align 8
  %11 = alloca i32, align 4
  %12 = alloca i32, align 4
  %13 = alloca i32, align 4
  %14 = alloca i32, align 4
  %15 = alloca i32, align 4
  store ptr %0, ptr %7, align 8, !tbaa !27
  store i64 %1, ptr %8, align 8, !tbaa !29
  store ptr %2, ptr %9, align 8, !tbaa !27
  store i64 %3, ptr %10, align 8, !tbaa !29
  store i32 %4, ptr %11, align 4, !tbaa !20
  store i32 %5, ptr %12, align 4, !tbaa !20
  call void @llvm.lifetime.start.p0(i64 4, ptr %13) #7
  call void @llvm.lifetime.start.p0(i64 4, ptr %14) #7
  br label %16

16:                                               ; preds = %106, %6
  %17 = load i32, ptr %12, align 4, !tbaa !20
  %18 = icmp sgt i32 %17, 0
  br i1 %18, label %19, label %109

19:                                               ; preds = %16
  %20 = load i32, ptr %11, align 4, !tbaa !20
  store i32 %20, ptr %13, align 4, !tbaa !20
  br label %21

21:                                               ; preds = %88, %19
  %22 = load i32, ptr %13, align 4, !tbaa !20
  %23 = icmp sgt i32 %22, 0
  br i1 %23, label %24, label %91

24:                                               ; preds = %21
  call void @llvm.lifetime.start.p0(i64 4, ptr %15) #7
  store i32 0, ptr %15, align 4, !tbaa !20
  store i32 0, ptr %14, align 4, !tbaa !20
  br label %25

25:                                               ; preds = %73, %24
  %26 = load i32, ptr %14, align 4, !tbaa !20
  %27 = icmp slt i32 %26, 8
  br i1 %27, label %28, label %76

28:                                               ; preds = %25
  %29 = load ptr, ptr %9, align 8, !tbaa !27
  %30 = getelementptr inbounds i8, ptr %29, i64 0
  %31 = load i8, ptr %30, align 1, !tbaa !31
  %32 = zext i8 %31 to i32
  %33 = load ptr, ptr %9, align 8, !tbaa !27
  %34 = getelementptr inbounds i8, ptr %33, i64 1
  %35 = load i8, ptr %34, align 1, !tbaa !31
  %36 = zext i8 %35 to i32
  %37 = add nsw i32 %32, %36
  %38 = load ptr, ptr %9, align 8, !tbaa !27
  %39 = getelementptr inbounds i8, ptr %38, i64 2
  %40 = load i8, ptr %39, align 1, !tbaa !31
  %41 = zext i8 %40 to i32
  %42 = add nsw i32 %37, %41
  %43 = load ptr, ptr %9, align 8, !tbaa !27
  %44 = getelementptr inbounds i8, ptr %43, i64 3
  %45 = load i8, ptr %44, align 1, !tbaa !31
  %46 = zext i8 %45 to i32
  %47 = add nsw i32 %42, %46
  %48 = load ptr, ptr %9, align 8, !tbaa !27
  %49 = getelementptr inbounds i8, ptr %48, i64 4
  %50 = load i8, ptr %49, align 1, !tbaa !31
  %51 = zext i8 %50 to i32
  %52 = add nsw i32 %47, %51
  %53 = load ptr, ptr %9, align 8, !tbaa !27
  %54 = getelementptr inbounds i8, ptr %53, i64 5
  %55 = load i8, ptr %54, align 1, !tbaa !31
  %56 = zext i8 %55 to i32
  %57 = add nsw i32 %52, %56
  %58 = load ptr, ptr %9, align 8, !tbaa !27
  %59 = getelementptr inbounds i8, ptr %58, i64 6
  %60 = load i8, ptr %59, align 1, !tbaa !31
  %61 = zext i8 %60 to i32
  %62 = add nsw i32 %57, %61
  %63 = load ptr, ptr %9, align 8, !tbaa !27
  %64 = getelementptr inbounds i8, ptr %63, i64 7
  %65 = load i8, ptr %64, align 1, !tbaa !31
  %66 = zext i8 %65 to i32
  %67 = add nsw i32 %62, %66
  %68 = load i32, ptr %15, align 4, !tbaa !20
  %69 = add nsw i32 %68, %67
  store i32 %69, ptr %15, align 4, !tbaa !20
  %70 = load i64, ptr %10, align 8, !tbaa !29
  %71 = load ptr, ptr %9, align 8, !tbaa !27
  %72 = getelementptr inbounds i8, ptr %71, i64 %70
  store ptr %72, ptr %9, align 8, !tbaa !27
  br label %73

73:                                               ; preds = %28
  %74 = load i32, ptr %14, align 4, !tbaa !20
  %75 = add nsw i32 %74, 1
  store i32 %75, ptr %14, align 4, !tbaa !20
  br label %25, !llvm.loop !37

76:                                               ; preds = %25
  %77 = load i32, ptr %15, align 4, !tbaa !20
  %78 = add nsw i32 %77, 32
  %79 = ashr i32 %78, 6
  %80 = trunc i32 %79 to i8
  %81 = load ptr, ptr %7, align 8, !tbaa !27
  %82 = getelementptr inbounds nuw i8, ptr %81, i32 1
  store ptr %82, ptr %7, align 8, !tbaa !27
  store i8 %80, ptr %81, align 1, !tbaa !31
  %83 = load i64, ptr %10, align 8, !tbaa !29
  %84 = mul nsw i64 8, %83
  %85 = sub nsw i64 8, %84
  %86 = load ptr, ptr %9, align 8, !tbaa !27
  %87 = getelementptr inbounds i8, ptr %86, i64 %85
  store ptr %87, ptr %9, align 8, !tbaa !27
  call void @llvm.lifetime.end.p0(i64 4, ptr %15) #7
  br label %88

88:                                               ; preds = %76
  %89 = load i32, ptr %13, align 4, !tbaa !20
  %90 = add nsw i32 %89, -1
  store i32 %90, ptr %13, align 4, !tbaa !20
  br label %21, !llvm.loop !38

91:                                               ; preds = %21
  %92 = load i64, ptr %10, align 8, !tbaa !29
  %93 = mul nsw i64 8, %92
  %94 = load i32, ptr %11, align 4, !tbaa !20
  %95 = mul nsw i32 8, %94
  %96 = sext i32 %95 to i64
  %97 = sub nsw i64 %93, %96
  %98 = load ptr, ptr %9, align 8, !tbaa !27
  %99 = getelementptr inbounds i8, ptr %98, i64 %97
  store ptr %99, ptr %9, align 8, !tbaa !27
  %100 = load i64, ptr %8, align 8, !tbaa !29
  %101 = load i32, ptr %11, align 4, !tbaa !20
  %102 = sext i32 %101 to i64
  %103 = sub nsw i64 %100, %102
  %104 = load ptr, ptr %7, align 8, !tbaa !27
  %105 = getelementptr inbounds i8, ptr %104, i64 %103
  store ptr %105, ptr %7, align 8, !tbaa !27
  br label %106

106:                                              ; preds = %91
  %107 = load i32, ptr %12, align 4, !tbaa !20
  %108 = add nsw i32 %107, -1
  store i32 %108, ptr %12, align 4, !tbaa !20
  br label %16, !llvm.loop !39

109:                                              ; preds = %16
  call void @llvm.lifetime.end.p0(i64 4, ptr %14) #7
  call void @llvm.lifetime.end.p0(i64 4, ptr %13) #7
  ret void
}