; Function Attrs: nofree norecurse nosync nounwind memory(argmem: readwrite) uwtable
define internal void @shrink88(ptr noundef writeonly captures(none) %0, i64 noundef %1, ptr noundef readonly captures(none) %2, i64 noundef %3, i32 noundef %4, i32 noundef %5) #2 {
  %7 = icmp sgt i32 %5, 0
  br i1 %7, label %.preheader33.lr.ph, label %._crit_edge44

.preheader33.lr.ph:                               ; preds = %6
  %8 = icmp sgt i32 %4, 0
  %9 = shl i64 %3, 3
  %10 = shl nsw i32 %4, 3
  %11 = sext i32 %10 to i64
  %12 = sub nsw i64 %9, %11
  %13 = sext i32 %4 to i64
  %14 = sub nsw i64 %1, %13
  br i1 %8, label %.preheader33.us, label %._crit_edge44

.preheader33.us:                                  ; preds = %.preheader33.lr.ph, %._crit_edge.us
  %.02943.us = phi i32 [ %59, %._crit_edge.us ], [ %5, %.preheader33.lr.ph ]
  %.03042.us = phi ptr [ %58, %._crit_edge.us ], [ %0, %.preheader33.lr.ph ]
  %.03141.us = phi ptr [ %57, %._crit_edge.us ], [ %2, %.preheader33.lr.ph ]
  br label %.preheader.us

15:                                               ; preds = %23
  %16 = add nsw i32 %54, 32
  %17 = lshr i32 %16, 6
  %18 = trunc i32 %17 to i8
  %19 = getelementptr inbounds nuw i8, ptr %.138.us, i64 1
  store i8 %18, ptr %.138.us, align 1, !tbaa !20
  %20 = getelementptr i8, ptr %.13237.us, i64 8
  %21 = add nsw i32 %.02839.us, -1
  %22 = icmp sgt i32 %.02839.us, 1
  br i1 %22, label %.preheader.us, label %._crit_edge.us, !llvm.loop !25

23:                                               ; preds = %.preheader.us, %23
  %.036.us = phi i32 [ 0, %.preheader.us ], [ %54, %23 ]
  %.02735.us = phi i32 [ 0, %.preheader.us ], [ %56, %23 ]
  %.234.us = phi ptr [ %.13237.us, %.preheader.us ], [ %55, %23 ]
  %24 = load i8, ptr %.234.us, align 1, !tbaa !20
  %25 = zext i8 %24 to i32
  %26 = getelementptr inbounds nuw i8, ptr %.234.us, i64 1
  %27 = load i8, ptr %26, align 1, !tbaa !20
  %28 = zext i8 %27 to i32
  %29 = getelementptr inbounds nuw i8, ptr %.234.us, i64 2
  %30 = load i8, ptr %29, align 1, !tbaa !20
  %31 = zext i8 %30 to i32
  %32 = getelementptr inbounds nuw i8, ptr %.234.us, i64 3
  %33 = load i8, ptr %32, align 1, !tbaa !20
  %34 = zext i8 %33 to i32
  %35 = getelementptr inbounds nuw i8, ptr %.234.us, i64 4
  %36 = load i8, ptr %35, align 1, !tbaa !20
  %37 = zext i8 %36 to i32
  %38 = getelementptr inbounds nuw i8, ptr %.234.us, i64 5
  %39 = load i8, ptr %38, align 1, !tbaa !20
  %40 = zext i8 %39 to i32
  %41 = getelementptr inbounds nuw i8, ptr %.234.us, i64 6
  %42 = load i8, ptr %41, align 1, !tbaa !20
  %43 = zext i8 %42 to i32
  %44 = getelementptr inbounds nuw i8, ptr %.234.us, i64 7
  %45 = load i8, ptr %44, align 1, !tbaa !20
  %46 = zext i8 %45 to i32
  %47 = add i32 %.036.us, %25
  %48 = add i32 %47, %28
  %49 = add i32 %48, %31
  %50 = add i32 %49, %34
  %51 = add i32 %50, %37
  %52 = add i32 %51, %40
  %53 = add i32 %52, %43
  %54 = add i32 %53, %46
  %55 = getelementptr inbounds i8, ptr %.234.us, i64 %3
  %56 = add nuw nsw i32 %.02735.us, 1
  %exitcond.not = icmp eq i32 %56, 8
  br i1 %exitcond.not, label %15, label %23, !llvm.loop !26

.preheader.us:                                    ; preds = %.preheader33.us, %15
  %.02839.us = phi i32 [ %4, %.preheader33.us ], [ %21, %15 ]
  %.138.us = phi ptr [ %.03042.us, %.preheader33.us ], [ %19, %15 ]
  %.13237.us = phi ptr [ %.03141.us, %.preheader33.us ], [ %20, %15 ]
  br label %23

._crit_edge.us:                                   ; preds = %15
  %57 = getelementptr inbounds i8, ptr %20, i64 %12
  %58 = getelementptr inbounds i8, ptr %19, i64 %14
  %59 = add nsw i32 %.02943.us, -1
  %60 = icmp sgt i32 %.02943.us, 1
  br i1 %60, label %.preheader33.us, label %._crit_edge44, !llvm.loop !27

._crit_edge44:                                    ; preds = %._crit_edge.us, %.preheader33.lr.ph, %6
  ret void
}